target datalayout = "e-m:e-p270:32:32-p271:32:32-p272:64:64-i64:64-i128:128-f80:128-n8:16:32:64-S128"
target triple = "x86_64-pc-linux-gnu"

%struct.SnapshotData = type { i32, i32, i32, ptr, i32, ptr, i32, i8, i8, i8, i32, i32, ptr, i32, i32, %struct.pairingheap_node, i64 }
%struct.pairingheap_node = type { ptr, ptr, ptr }
%struct.BrinLeader = type { ptr, i32, ptr, ptr, ptr, ptr, ptr }
%struct.ParallelContext = type { %struct.dlist_node, i32, i32, i32, i32, ptr, ptr, ptr, %struct.shm_toc_estimator, ptr, ptr, ptr, ptr, i32, ptr }
%struct.dlist_node = type { ptr, ptr }
%struct.shm_toc_estimator = type { i64, i64 }
%struct.BufferUsage = type { i64, i64, i64, i64, i64, i64, i64, i64, i64, i64, %struct.instr_time, %struct.instr_time, %struct.instr_time, %struct.instr_time, %struct.instr_time, %struct.instr_time }
%struct.instr_time = type { i64 }
%struct.WalUsage = type { i64, i64, i64, i64 }

; Function Attrs: nounwind uwtable
define internal void @_brin_end_parallel(ptr noundef %0, ptr noundef %1) #0 {
  %3 = alloca ptr, align 8
  %4 = alloca ptr, align 8
  %5 = alloca i32, align 4
  store ptr %0, ptr %3, align 8
  store ptr %1, ptr %4, align 8
  call void @llvm.lifetime.start.p0(i64 4, ptr %5) #9
  %6 = load ptr, ptr %3, align 8
  %7 = getelementptr inbounds nuw %struct.BrinLeader, ptr %6, i32 0, i32 0
  %8 = load ptr, ptr %7, align 8
  call void @WaitForParallelWorkersToFinish(ptr noundef %8)
  store i32 0, ptr %5, align 4
  br label %9

9:                                                ; preds = %30, %2
  %10 = load i32, ptr %5, align 4
  %11 = load ptr, ptr %3, align 8
  %12 = getelementptr inbounds nuw %struct.BrinLeader, ptr %11, i32 0, i32 0
  %13 = load ptr, ptr %12, align 8
  %14 = getelementptr inbounds nuw %struct.ParallelContext, ptr %13, i32 0, i32 4
  %15 = load i32, ptr %14, align 4
  %16 = icmp slt i32 %10, %15
  br i1 %16, label %17, label %33

17:                                               ; preds = %9
  %18 = load ptr, ptr %3, align 8
  %19 = getelementptr inbounds nuw %struct.BrinLeader, ptr %18, i32 0, i32 6
  %20 = load ptr, ptr %19, align 8
  %21 = load i32, ptr %5, align 4
  %22 = sext i32 %21 to i64
  %23 = getelementptr inbounds %struct.BufferUsage, ptr %20, i64 %22
  %24 = load ptr, ptr %3, align 8
  %25 = getelementptr inbounds nuw %struct.BrinLeader, ptr %24, i32 0, i32 5
  %26 = load ptr, ptr %25, align 8
  %27 = load i32, ptr %5, align 4
  %28 = sext i32 %27 to i64
  %29 = getelementptr inbounds %struct.WalUsage, ptr %26, i64 %28
  call void @InstrAccumParallelQuery(ptr noundef %23, ptr noundef %29)
  br label %30

30:                                               ; preds = %17
  %31 = load i32, ptr %5, align 4
  %32 = add i32 %31, 1
  store i32 %32, ptr %5, align 4
  br label %9, !llvm.loop !19

33:                                               ; preds = %9
  %34 = load ptr, ptr %3, align 8
  %35 = getelementptr inbounds nuw %struct.BrinLeader, ptr %34, i32 0, i32 4
  %36 = load ptr, ptr %35, align 8
  %37 = getelementptr inbounds nuw %struct.SnapshotData, ptr %36, i32 0, i32 0
  %38 = load i32, ptr %37, align 8
  %39 = icmp eq i32 %38, 0
  br i1 %39, label %47, label %40

40:                                               ; preds = %33
  %41 = load ptr, ptr %3, align 8
  %42 = getelementptr inbounds nuw %struct.BrinLeader, ptr %41, i32 0, i32 4
  %43 = load ptr, ptr %42, align 8
  %44 = getelementptr inbounds nuw %struct.SnapshotData, ptr %43, i32 0, i32 0
  %45 = load i32, ptr %44, align 8
  %46 = icmp eq i32 %45, 5
  br i1 %46, label %47, label %51

47:                                               ; preds = %40, %33
  %48 = load ptr, ptr %3, align 8
  %49 = getelementptr inbounds nuw %struct.BrinLeader, ptr %48, i32 0, i32 4
  %50 = load ptr, ptr %49, align 8
  call void @UnregisterSnapshot(ptr noundef %50)
  br label %51

51:                                               ; preds = %47, %40
  %52 = load ptr, ptr %3, align 8
  %53 = getelementptr inbounds nuw %struct.BrinLeader, ptr %52, i32 0, i32 0
  %54 = load ptr, ptr %53, align 8
  call void @DestroyParallelContext(ptr noundef %54)
  call void @ExitParallelMode()
  call void @llvm.lifetime.end.p0(i64 4, ptr %5) #9
  ret void
}